target datalayout = "e-m:e-p270:32:32-p271:32:32-p272:64:64-i64:64-i128:128-f80:128-n8:16:32:64-S128"
target triple = "x86_64-pc-linux-gnu"

%struct.mbedtls_md_info_t = type { i32, i8, i8 }

; Function Attrs: nounwind uwtable
define hidden i32 @mbedtls_md_get_type(ptr noundef %0) #0 {
  %2 = alloca i32, align 4
  %3 = alloca ptr, align 8
  store ptr %0, ptr %3, align 8, !tbaa !18
  %4 = load ptr, ptr %3, align 8, !tbaa !18
  %5 = icmp eq ptr %4, null
  br i1 %5, label %6, label %7

6:                                                ; preds = %1
  store i32 0, ptr %2, align 4
  br label %11

7:                                                ; preds = %1
  %8 = load ptr, ptr %3, align 8, !tbaa !18
  %9 = getelementptr inbounds nuw %struct.mbedtls_md_info_t, ptr %8, i32 0, i32 0
  %10 = load i32, ptr %9, align 4, !tbaa !14
  store i32 %10, ptr %2, align 4
  br label %11

11:                                               ; preds = %7, %6
  %12 = load i32, ptr %2, align 4
  ret i32 %12
}